target datalayout = "e-m:e-p270:32:32-p271:32:32-p272:64:64-i64:64-i128:128-f80:128-n8:16:32:64-S128"
target triple = "x86_64-pc-linux-gnu"

%struct.TESTDATA_asn1_to_utc = type { ptr, i64 }

@.str.1 = private unnamed_addr constant [33 x i8] c"../openssl/test/asn1_time_test.c\00", align 1
@.str.131 = private unnamed_addr constant [12 x i8] c"testdateutc\00", align 1
@.str.132 = private unnamed_addr constant [26 x i8] c"asn1_to_utc[idx].expected\00", align 1
@.str.133 = private unnamed_addr constant [65 x i8] c"test_asn1_string_to_time_t (%s) failed: expected %lli, got %lli\0A\00", align 1

; Function Attrs: nounwind uwtable
define internal i32 @convert_asn1_to_time_t(i32 noundef %0) #0 {
  %2 = alloca i32, align 4
  %3 = alloca i32, align 4
  %4 = alloca i64, align 8
  %5 = alloca i32, align 4
  store i32 %0, ptr %3, align 4, !tbaa !11
  call void @llvm.lifetime.start.p0(i64 8, ptr %4) #5
  %6 = load i32, ptr %3, align 4, !tbaa !11
  %7 = sext i32 %6 to i64
  %8 = getelementptr inbounds [5 x %struct.TESTDATA_asn1_to_utc], ptr @asn1_to_utc, i64 0, i64 %7
  %9 = getelementptr inbounds nuw %struct.TESTDATA_asn1_to_utc, ptr %8, i32 0, i32 0
  %10 = load ptr, ptr %9, align 16, !tbaa !21
  %11 = call i64 @test_asn1_string_to_time_t(ptr noundef %10)
  store i64 %11, ptr %4, align 8, !tbaa !4
  %12 = load i64, ptr %4, align 8, !tbaa !4
  %13 = load i32, ptr %3, align 4, !tbaa !11
  %14 = sext i32 %13 to i64
  %15 = getelementptr inbounds [5 x %struct.TESTDATA_asn1_to_utc], ptr @asn1_to_utc, i64 0, i64 %14
  %16 = getelementptr inbounds nuw %struct.TESTDATA_asn1_to_utc, ptr %15, i32 0, i32 1
  %17 = load i64, ptr %16, align 8, !tbaa !23
  %18 = call i32 @test_time_t_eq(ptr noundef @.str.1, i32 noundef 439, ptr noundef @.str.131, ptr noundef @.str.132, i64 noundef %12, i64 noundef %17)
  %19 = icmp ne i32 %18, 0
  br i1 %19, label %32, label %20

20:                                               ; preds = %1
  %21 = load i32, ptr %3, align 4, !tbaa !11
  %22 = sext i32 %21 to i64
  %23 = getelementptr inbounds [5 x %struct.TESTDATA_asn1_to_utc], ptr @asn1_to_utc, i64 0, i64 %22
  %24 = getelementptr inbounds nuw %struct.TESTDATA_asn1_to_utc, ptr %23, i32 0, i32 0
  %25 = load ptr, ptr %24, align 16, !tbaa !21
  %26 = load i32, ptr %3, align 4, !tbaa !11
  %27 = sext i32 %26 to i64
  %28 = getelementptr inbounds [5 x %struct.TESTDATA_asn1_to_utc], ptr @asn1_to_utc, i64 0, i64 %27
  %29 = getelementptr inbounds nuw %struct.TESTDATA_asn1_to_utc, ptr %28, i32 0, i32 1
  %30 = load i64, ptr %29, align 8, !tbaa !23
  %31 = load i64, ptr %4, align 8, !tbaa !4
  call void (ptr, i32, ptr, ...) @test_info(ptr noundef @.str.1, i32 noundef 443, ptr noundef @.str.133, ptr noundef %25, i64 noundef %30, i64 noundef %31)
  store i32 0, ptr %2, align 4
  store i32 1, ptr %5, align 4
  br label %33

32:                                               ; preds = %1
  store i32 1, ptr %2, align 4
  store i32 1, ptr %5, align 4
  br label %33

33:                                               ; preds = %32, %20
  call void @llvm.lifetime.end.p0(i64 8, ptr %4) #5
  %34 = load i32, ptr %2, align 4
  ret i32 %34
}