; Function Attrs: nounwind uwtable
define internal range(i32 0, 2) i32 @convert_asn1_to_time_t(i32 noundef %0) #0 {
  %2 = sext i32 %0 to i64
  %3 = getelementptr inbounds [5 x %struct.TESTDATA_asn1_to_utc], ptr @asn1_to_utc, i64 0, i64 %2
  %4 = load ptr, ptr %3, align 16, !tbaa !14
  %5 = tail call i64 @test_asn1_string_to_time_t(ptr noundef %4) #5
  %6 = getelementptr inbounds nuw i8, ptr %3, i64 8
  %7 = load i64, ptr %6, align 8, !tbaa !16
  %8 = tail call i32 @test_time_t_eq(ptr noundef nonnull @.str.1, i32 noundef 439, ptr noundef nonnull @.str.131, ptr noundef nonnull @.str.132, i64 noundef %5, i64 noundef %7) #5
  %.not = icmp eq i32 %8, 0
  br i1 %.not, label %9, label %10

9:                                                ; preds = %1
  tail call void (ptr, i32, ptr, ...) @test_info(ptr noundef nonnull @.str.1, i32 noundef 443, ptr noundef nonnull @.str.133, ptr noundef %4, i64 noundef %7, i64 noundef %5) #5
  br label %10

10:                                               ; preds = %1, %9
  %.0 = phi i32 [ 0, %9 ], [ 1, %1 ]
  ret i32 %.0
}